; ModuleID = 'source-C-CXX/42/1786.c'
source_filename = "source-C-CXX/42/1786.c"
target datalayout = "e-m:e-p270:32:32-p271:32:32-p272:64:64-i64:64-f80:128-n8:16:32:64-S128"
target triple = "x86_64-pc-linux-gnu"

@.str = private unnamed_addr constant [3 x i8] c"%d\00", align 1
@.str.1 = private unnamed_addr constant [7 x i8] c"%d %d\0A\00", align 1

; Function Attrs: nofree nounwind sspstrong uwtable
define dso_local i32 @main() local_unnamed_addr #0 {
  %1 = alloca i32, align 4
  %2 = bitcast i32* %1 to i8*
  call void @llvm.lifetime.start.p0i8(i64 4, i8* nonnull %2) #3
  %3 = call i32 (i8*, ...) @__isoc99_scanf(i8* getelementptr inbounds ([3 x i8], [3 x i8]* @.str, i64 0, i64 0), i32* nonnull %1)
  %4 = load i32, i32* %1, align 4, !tbaa !5
  %5 = icmp slt i32 %4, 6
  br i1 %5, label %38, label %6

6:                                                ; preds = %0, %33
  %7 = phi i32 [ %34, %33 ], [ %4, %0 ]
  %8 = phi i32 [ %35, %33 ], [ 3, %0 ]
  %9 = icmp ugt i32 %8, 3
  br i1 %9, label %12, label %17

10:                                               ; preds = %12
  %11 = icmp ult i32 %16, %8
  br i1 %11, label %12, label %17, !llvm.loop !9

12:                                               ; preds = %6, %10
  %13 = phi i32 [ %16, %10 ], [ 3, %6 ]
  %14 = urem i32 %8, %13
  %15 = icmp eq i32 %14, 0
  %16 = add nuw nsw i32 %13, 2
  br i1 %15, label %33, label %10

17:                                               ; preds = %10, %6
  %18 = sub nsw i32 %7, %8
  %19 = icmp sgt i32 %18, 3
  br i1 %19, label %20, label %27

20:                                               ; preds = %17, %24
  %21 = phi i32 [ %25, %24 ], [ 3, %17 ]
  %22 = srem i32 %18, %21
  %23 = icmp eq i32 %22, 0
  br i1 %23, label %27, label %24

24:                                               ; preds = %20
  %25 = add nuw nsw i32 %21, 2
  %26 = icmp slt i32 %25, %18
  br i1 %26, label %20, label %27, !llvm.loop !11

27:                                               ; preds = %24, %20, %17
  %28 = phi i32 [ 3, %17 ], [ %21, %20 ], [ %25, %24 ]
  %29 = icmp eq i32 %28, %18
  br i1 %29, label %30, label %33

30:                                               ; preds = %27
  %31 = call i32 (i8*, ...) @printf(i8* nonnull dereferenceable(1) getelementptr inbounds ([7 x i8], [7 x i8]* @.str.1, i64 0, i64 0), i32 %8, i32 %18)
  %32 = load i32, i32* %1, align 4, !tbaa !5
  br label %33

33:                                               ; preds = %12, %30, %27
  %34 = phi i32 [ %32, %30 ], [ %7, %27 ], [ %7, %12 ]
  %35 = add nuw nsw i32 %8, 2
  %36 = sdiv i32 %34, 2
  %37 = icmp sgt i32 %35, %36
  br i1 %37, label %38, label %6, !llvm.loop !12

38:                                               ; preds = %33, %0
  call void @llvm.lifetime.end.p0i8(i64 4, i8* nonnull %2) #3
  ret i32 0
}

; Function Attrs: argmemonly mustprogress nofree nosync nounwind willreturn
declare void @llvm.lifetime.start.p0i8(i64 immarg, i8* nocapture) #1

; Function Attrs: nofree nounwind
declare noundef i32 @__isoc99_scanf(i8* nocapture noundef readonly, ...) local_unnamed_addr #2

; Function Attrs: nofree nounwind
declare noundef i32 @printf(i8* nocapture noundef readonly, ...) local_unnamed_addr #2

; Function Attrs: argmemonly mustprogress nofree nosync nounwind willreturn
declare void @llvm.lifetime.end.p0i8(i64 immarg, i8* nocapture) #1


!llvm.module.flags = !{!0, !1, !2, !3}
!llvm.ident = !{!4}

!0 = !{i32 1, !"wchar_size", i32 4}
!1 = !{i32 7, !"PIC Level", i32 2}
!2 = !{i32 7, !"PIE Level", i32 2}
!3 = !{i32 7, !"uwtable", i32 1}
!4 = !{!"clang version 13.0.0"}
!5 = !{!6, !6, i64 0}
!6 = !{!"int", !7, i64 0}
!7 = !{!"omnipotent char", !8, i64 0}
!8 = !{!"Simple C/C++ TBAA"}
!9 = distinct !{!9, !10}
!10 = !{!"llvm.loop.mustprogress"}
!11 = distinct !{!11, !10}
!12 = distinct !{!12, !10}
